; Function Attrs: nounwind uwtable
define void @lv_obj_set_width(ptr noundef %0, i32 noundef %1) local_unnamed_addr #0 {
  %3 = alloca %union.lv_style_value_t, align 8
  call void @llvm.lifetime.start.p0(i64 8, ptr nonnull %3) #8
  %4 = call i32 @lv_obj_get_local_style_prop(ptr noundef %0, i8 noundef zeroext 1, ptr noundef nonnull %3, i32 noundef 0) #8
  switch i32 %4, label %8 [
    i32 1, label %5
    i32 0, label %7
  ]

5:                                                ; preds = %2
  %6 = load i32, ptr %3, align 8, !tbaa !3
  %.not = icmp eq i32 %6, %1
  br i1 %.not, label %8, label %7

7:                                                ; preds = %2, %5
  call void @lv_obj_set_style_width(ptr noundef %0, i32 noundef %1, i32 noundef 0) #8
  br label %8

8:                                                ; preds = %2, %5, %7
  call void @llvm.lifetime.end.p0(i64 8, ptr nonnull %3) #8
  ret void
}